; Function Attrs: nounwind uwtable
define noalias nonnull ptr @l_Std_Range_forIn_x27_loop___at___private_Lean_Elab_Inductive_0__Lean_Elab_Command_elabCtors_checkParamOccs___spec__2___lambda__1(ptr noundef %0, ptr noundef %1, ptr noundef %2, ptr readnone captures(none) %3, ptr noundef %4, ptr readnone captures(none) %5, ptr readnone captures(none) %6, ptr readnone captures(none) %7, ptr readnone captures(none) %8, ptr noundef %9) local_unnamed_addr #0 {
  %11 = ptrtoint ptr %0 to i64
  %12 = and i64 %11, 1
  %.not.i = icmp eq i64 %12, 0
  br i1 %.not.i, label %.thread.i, label %13

13:                                               ; preds = %10
  %14 = lshr i64 %11, 1
  %15 = getelementptr i8, ptr %2, i64 8
  %.val.i = load i64, ptr %15, align 8, !tbaa !12
  %16 = icmp ult i64 %14, %.val.i
  br i1 %16, label %17, label %.thread.i

17:                                               ; preds = %13
  %.val.i.i.i = load i32, ptr %2, align 4, !tbaa !4
  %18 = icmp eq i32 %.val.i.i.i, 1
  br i1 %18, label %lean_ensure_exclusive_array.exit.i.i, label %19

19:                                               ; preds = %17
  %20 = tail call ptr @lean_copy_expand_array(ptr noundef nonnull %2, i1 noundef zeroext false) #6
  br label %lean_ensure_exclusive_array.exit.i.i

lean_ensure_exclusive_array.exit.i.i:             ; preds = %19, %17
  %.0.i.i.i = phi ptr [ %20, %19 ], [ %2, %17 ]
  %21 = getelementptr inbounds nuw i8, ptr %.0.i.i.i, i64 24
  %22 = getelementptr inbounds nuw ptr, ptr %21, i64 %14
  %23 = load ptr, ptr %22, align 8, !tbaa !10
  %24 = ptrtoint ptr %23 to i64
  %25 = and i64 %24, 1
  %.not.i.i = icmp eq i64 %25, 0
  br i1 %.not.i.i, label %26, label %33

26:                                               ; preds = %lean_ensure_exclusive_array.exit.i.i
  %27 = load i32, ptr %23, align 4, !tbaa !4
  %28 = icmp sgt i32 %27, 1
  br i1 %28, label %29, label %31, !prof !9

29:                                               ; preds = %26
  %30 = add nsw i32 %27, -1
  store i32 %30, ptr %23, align 4, !tbaa !4
  br label %33

31:                                               ; preds = %26
  %.not.i.i.i = icmp eq i32 %27, 0
  br i1 %.not.i.i.i, label %33, label %32

32:                                               ; preds = %31
  tail call void @lean_dec_ref_cold(ptr noundef nonnull %23) #6
  br label %33

33:                                               ; preds = %32, %31, %29, %lean_ensure_exclusive_array.exit.i.i
  store ptr %1, ptr %22, align 8, !tbaa !10
  br label %lean_array_set.exit

.thread.i:                                        ; preds = %13, %10
  %34 = tail call ptr @lean_array_set_panic(ptr noundef %2, ptr noundef %1) #6
  br label %lean_array_set.exit

lean_array_set.exit:                              ; preds = %33, %.thread.i
  %.1.i = phi ptr [ %.0.i.i.i, %33 ], [ %34, %.thread.i ]
  tail call void @lean_inc_heartbeat() #6
  %35 = tail call noalias ptr @mi_malloc_small(i64 noundef 16) #6
  %36 = icmp eq ptr %35, null
  br i1 %36, label %37, label %lean_alloc_ctor.exit

37:                                               ; preds = %lean_array_set.exit
  tail call void @lean_internal_panic_out_of_memory() #7
  unreachable

lean_alloc_ctor.exit:                             ; preds = %lean_array_set.exit
  %38 = getelementptr inbounds nuw i8, ptr %35, i64 4
  store i32 1, ptr %35, align 4, !tbaa !4
  store i32 16842768, ptr %38, align 4
  %39 = getelementptr inbounds nuw i8, ptr %35, i64 8
  store ptr %.1.i, ptr %39, align 8, !tbaa !10
  tail call void @lean_inc_heartbeat() #6
  %40 = tail call noalias ptr @mi_malloc_small(i64 noundef 24) #6
  %41 = icmp eq ptr %40, null
  br i1 %41, label %42, label %lean_alloc_ctor.exit14

42:                                               ; preds = %lean_alloc_ctor.exit
  tail call void @lean_internal_panic_out_of_memory() #7
  unreachable

lean_alloc_ctor.exit14:                           ; preds = %lean_alloc_ctor.exit
  %43 = getelementptr inbounds nuw i8, ptr %40, i64 4
  store i32 1, ptr %40, align 4, !tbaa !4
  store i32 131096, ptr %43, align 4
  %44 = getelementptr inbounds nuw i8, ptr %40, i64 8
  store ptr %35, ptr %44, align 8, !tbaa !10
  %45 = getelementptr inbounds nuw i8, ptr %40, i64 16
  store ptr %4, ptr %45, align 8, !tbaa !10
  tail call void @lean_inc_heartbeat() #6
  %46 = tail call noalias ptr @mi_malloc_small(i64 noundef 24) #6
  %47 = icmp eq ptr %46, null
  br i1 %47, label %48, label %lean_alloc_ctor.exit15

48:                                               ; preds = %lean_alloc_ctor.exit14
  tail call void @lean_internal_panic_out_of_memory() #7
  unreachable

lean_alloc_ctor.exit15:                           ; preds = %lean_alloc_ctor.exit14
  %49 = getelementptr inbounds nuw i8, ptr %46, i64 4
  store i32 1, ptr %46, align 4, !tbaa !4
  store i32 131096, ptr %49, align 4
  %50 = getelementptr inbounds nuw i8, ptr %46, i64 8
  store ptr %40, ptr %50, align 8, !tbaa !10
  %51 = getelementptr inbounds nuw i8, ptr %46, i64 16
  store ptr %9, ptr %51, align 8, !tbaa !10
  ret ptr %46
}